target datalayout = "e-m:e-p270:32:32-p271:32:32-p272:64:64-i64:64-i128:128-f80:128-n8:16:32:64-S128"
target triple = "x86_64-pc-linux-gnu"

@hf_r3_commandlength = internal global i32 0, align 4
@hf_r3_command = internal global i32 0, align 4
@hf_r3_defineexceptiongroup_number = internal global i32 0, align 4
@hf_r3_defineexceptiongroup_bits = internal global i32 0, align 4
@ett_r3defineexceptiongroupbits = internal global i32 0, align 4
@.str.2136 = private unnamed_addr constant [26 x i8] c"Exception Group Bit Field\00", align 1
@.str.2137 = private unnamed_addr constant [24 x i8] c"Exception Group %2d: %s\00", align 1
@.str.2138 = private unnamed_addr constant [8 x i8] c"Enabled\00", align 1
@.str.2139 = private unnamed_addr constant [9 x i8] c"Disabled\00", align 1

; Function Attrs: null_pointer_is_valid sspstrong uwtable
define internal void @dissect_r3_cmd_defineexceptiongroup(ptr noundef %0, i32 noundef %1, i32 noundef %2, ptr noundef %3, ptr noundef %4) #0 {
  %6 = alloca ptr, align 8
  %7 = alloca i32, align 4
  %8 = alloca i32, align 4
  %9 = alloca ptr, align 8
  %10 = alloca ptr, align 8
  %11 = alloca ptr, align 8
  %12 = alloca i32, align 4
  %13 = alloca ptr, align 8
  %14 = alloca i32, align 4
  %15 = alloca i32, align 4
  %16 = alloca i32, align 4
  %17 = alloca i32, align 4
  %18 = alloca i8, align 1
  store ptr %0, ptr %6, align 8
  store i32 %1, ptr %7, align 4
  store i32 %2, ptr %8, align 4
  store ptr %3, ptr %9, align 8
  store ptr %4, ptr %10, align 8
  call void @llvm.lifetime.start.p0(i64 8, ptr %11) #5
  call void @llvm.lifetime.start.p0(i64 4, ptr %12) #5
  call void @llvm.lifetime.start.p0(i64 8, ptr %13) #5
  call void @llvm.lifetime.start.p0(i64 4, ptr %14) #5
  call void @llvm.lifetime.start.p0(i64 4, ptr %15) #5
  store i32 0, ptr %15, align 4
  %19 = load ptr, ptr %10, align 8
  %20 = icmp ne ptr %19, null
  br i1 %20, label %22, label %21

21:                                               ; preds = %5
  store i32 1, ptr %16, align 4
  br label %89

22:                                               ; preds = %5
  %23 = load ptr, ptr %6, align 8
  %24 = load i32, ptr %7, align 4
  %25 = add i32 %24, 0
  %26 = call zeroext i8 @tvb_get_uint8(ptr noundef %23, i32 noundef %25)
  %27 = zext i8 %26 to i32
  store i32 %27, ptr %12, align 4
  %28 = load ptr, ptr %6, align 8
  %29 = load i32, ptr %7, align 4
  %30 = add i32 %29, 2
  %31 = load i32, ptr %12, align 4
  %32 = sub i32 %31, 2
  %33 = call ptr @tvb_new_subset_length(ptr noundef %28, i32 noundef %30, i32 noundef %32)
  store ptr %33, ptr %13, align 8
  %34 = load ptr, ptr %10, align 8
  %35 = load i32, ptr @hf_r3_commandlength, align 4
  %36 = load ptr, ptr %6, align 8
  %37 = load i32, ptr %7, align 4
  %38 = add i32 %37, 0
  %39 = call ptr @proto_tree_add_item(ptr noundef %34, i32 noundef %35, ptr noundef %36, i32 noundef %38, i32 noundef 1, i32 noundef -2147483648)
  %40 = load ptr, ptr %10, align 8
  %41 = load i32, ptr @hf_r3_command, align 4
  %42 = load ptr, ptr %6, align 8
  %43 = load i32, ptr %7, align 4
  %44 = add i32 %43, 1
  %45 = call ptr @proto_tree_add_item(ptr noundef %40, i32 noundef %41, ptr noundef %42, i32 noundef %44, i32 noundef 1, i32 noundef -2147483648)
  %46 = load ptr, ptr %10, align 8
  %47 = load i32, ptr @hf_r3_defineexceptiongroup_number, align 4
  %48 = load ptr, ptr %13, align 8
  %49 = call ptr @proto_tree_add_item(ptr noundef %46, i32 noundef %47, ptr noundef %48, i32 noundef 0, i32 noundef 1, i32 noundef -2147483648)
  %50 = load ptr, ptr %10, align 8
  %51 = load ptr, ptr %13, align 8
  %52 = load i32, ptr @ett_r3defineexceptiongroupbits, align 4
  %53 = call ptr @proto_tree_add_subtree(ptr noundef %50, ptr noundef %51, i32 noundef 1, i32 noundef -1, i32 noundef %52, ptr noundef null, ptr noundef @.str.2136)
  store ptr %53, ptr %11, align 8
  store i32 1, ptr %14, align 4
  br label %54

54:                                               ; preds = %85, %22
  %55 = load i32, ptr %14, align 4
  %56 = load i32, ptr %12, align 4
  %57 = sub i32 %56, 2
  %58 = icmp ult i32 %55, %57
  br i1 %58, label %59, label %88

59:                                               ; preds = %54
  call void @llvm.lifetime.start.p0(i64 4, ptr %17) #5
  call void @llvm.lifetime.start.p0(i64 1, ptr %18) #5
  %60 = load ptr, ptr %13, align 8
  %61 = load i32, ptr %14, align 4
  %62 = call zeroext i8 @tvb_get_uint8(ptr noundef %60, i32 noundef %61)
  store i8 %62, ptr %18, align 1
  store i32 0, ptr %17, align 4
  br label %63

63:                                               ; preds = %81, %59
  %64 = load i32, ptr %17, align 4
  %65 = icmp ult i32 %64, 8
  br i1 %65, label %66, label %84

66:                                               ; preds = %63
  %67 = load ptr, ptr %11, align 8
  %68 = load i32, ptr @hf_r3_defineexceptiongroup_bits, align 4
  %69 = load ptr, ptr %13, align 8
  %70 = load i32, ptr %14, align 4
  %71 = load i32, ptr %15, align 4
  %72 = add i32 %71, 1
  store i32 %72, ptr %15, align 4
  %73 = load i8, ptr %18, align 1
  %74 = zext i8 %73 to i32
  %75 = load i32, ptr %17, align 4
  %76 = shl i32 1, %75
  %77 = and i32 %74, %76
  %78 = icmp ne i32 %77, 0
  %79 = select i1 %78, ptr @.str.2138, ptr @.str.2139
  %80 = call ptr (ptr, i32, ptr, i32, i32, ptr, ...) @proto_tree_add_none_format(ptr noundef %67, i32 noundef %68, ptr noundef %69, i32 noundef %70, i32 noundef 1, ptr noundef @.str.2137, i32 noundef %71, ptr noundef %79)
  br label %81

81:                                               ; preds = %66
  %82 = load i32, ptr %17, align 4
  %83 = add i32 %82, 1
  store i32 %83, ptr %17, align 4
  br label %63, !llvm.loop !11

84:                                               ; preds = %63
  call void @llvm.lifetime.end.p0(i64 1, ptr %18) #5
  call void @llvm.lifetime.end.p0(i64 4, ptr %17) #5
  br label %85

85:                                               ; preds = %84
  %86 = load i32, ptr %14, align 4
  %87 = add i32 %86, 1
  store i32 %87, ptr %14, align 4
  br label %54, !llvm.loop !12

88:                                               ; preds = %54
  store i32 0, ptr %16, align 4
  br label %89

89:                                               ; preds = %88, %21
  call void @llvm.lifetime.end.p0(i64 4, ptr %15) #5
  call void @llvm.lifetime.end.p0(i64 4, ptr %14) #5
  call void @llvm.lifetime.end.p0(i64 8, ptr %13) #5
  call void @llvm.lifetime.end.p0(i64 4, ptr %12) #5
  call void @llvm.lifetime.end.p0(i64 8, ptr %11) #5
  %90 = load i32, ptr %16, align 4
  switch i32 %90, label %92 [
    i32 0, label %91
    i32 1, label %91
  ]

91:                                               ; preds = %89, %89
  ret void

92:                                               ; preds = %89
  unreachable
}