; Function Attrs: null_pointer_is_valid sspstrong uwtable
define internal void @dissect_r3_cmd_defineexceptiongroup(ptr noundef %0, i32 noundef %1, i32 %2, ptr readnone captures(none) %3, ptr noundef %4) #0 {
  %.not = icmp eq ptr %4, null
  br i1 %.not, label %.loopexit, label %6

6:                                                ; preds = %5
  %7 = tail call zeroext i8 @tvb_get_uint8(ptr noundef %0, i32 noundef %1)
  %8 = zext i8 %7 to i32
  %9 = add i32 %1, 2
  %10 = add nsw i32 %8, -2
  %11 = tail call ptr @tvb_new_subset_length(ptr noundef %0, i32 noundef %9, i32 noundef %10)
  %12 = load i32, ptr @hf_r3_commandlength, align 4
  %13 = tail call ptr @proto_tree_add_item(ptr noundef nonnull %4, i32 noundef %12, ptr noundef %0, i32 noundef %1, i32 noundef 1, i32 noundef -2147483648)
  %14 = load i32, ptr @hf_r3_command, align 4
  %15 = add i32 %1, 1
  %16 = tail call ptr @proto_tree_add_item(ptr noundef nonnull %4, i32 noundef %14, ptr noundef %0, i32 noundef %15, i32 noundef 1, i32 noundef -2147483648)
  %17 = load i32, ptr @hf_r3_defineexceptiongroup_number, align 4
  %18 = tail call ptr @proto_tree_add_item(ptr noundef nonnull %4, i32 noundef %17, ptr noundef %11, i32 noundef 0, i32 noundef 1, i32 noundef -2147483648)
  %19 = load i32, ptr @ett_r3defineexceptiongroupbits, align 4
  %20 = tail call ptr @proto_tree_add_subtree(ptr noundef nonnull %4, ptr noundef %11, i32 noundef 1, i32 noundef -1, i32 noundef %19, ptr noundef null, ptr noundef nonnull @.str.2136)
  %21 = icmp ugt i32 %10, 1
  br i1 %21, label %.lr.ph, label %.loopexit

.lr.ph:                                           ; preds = %6, %32
  %.035 = phi i32 [ %33, %32 ], [ 1, %6 ]
  %.02934 = phi i32 [ %26, %32 ], [ 0, %6 ]
  %22 = tail call zeroext i8 @tvb_get_uint8(ptr noundef %11, i32 noundef %.035)
  %23 = zext i8 %22 to i32
  br label %24

24:                                               ; preds = %.lr.ph, %24
  %.02833 = phi i32 [ 0, %.lr.ph ], [ %31, %24 ]
  %.132 = phi i32 [ %.02934, %.lr.ph ], [ %26, %24 ]
  %25 = load i32, ptr @hf_r3_defineexceptiongroup_bits, align 4
  %26 = add i32 %.132, 1
  %27 = shl nuw nsw i32 1, %.02833
  %28 = and i32 %27, %23
  %.not31 = icmp eq i32 %28, 0
  %29 = select i1 %.not31, ptr @.str.2139, ptr @.str.2138
  %30 = tail call ptr (ptr, i32, ptr, i32, i32, ptr, ...) @proto_tree_add_none_format(ptr noundef %20, i32 noundef %25, ptr noundef %11, i32 noundef %.035, i32 noundef 1, ptr noundef nonnull @.str.2137, i32 noundef %.132, ptr noundef nonnull %29)
  %31 = add nuw nsw i32 %.02833, 1
  %exitcond.not = icmp eq i32 %31, 8
  br i1 %exitcond.not, label %32, label %24, !llvm.loop !11

32:                                               ; preds = %24
  %33 = add nuw i32 %.035, 1
  %exitcond36.not = icmp eq i32 %33, %10
  br i1 %exitcond36.not, label %.loopexit, label %.lr.ph, !llvm.loop !12

.loopexit:                                        ; preds = %32, %6, %5
  ret void
}